; Function Attrs: mustprogress nofree norecurse nosync nounwind willreturn memory(argmem: read) uwtable
define hidden noundef zeroext i1 @_ZNK19OpenColorIO_v2_4dev18CTFReaderTransform5isCLFEv(ptr nocapture noundef nonnull readonly align 8 dereferenceable(356) %this) local_unnamed_addr #7 align 2 {
entry:
  %m_versionCLF = getelementptr inbounds i8, ptr %this, i64 340
  %0 = load i32, ptr %m_versionCLF, align 4
  %cmp3.i = icmp eq i32 %0, 0
  %m_minor.i1 = getelementptr inbounds i8, ptr %this, i64 344
  %1 = load i32, ptr %m_minor.i1, align 8
  %cmp5.i = icmp eq i32 %1, 0
  %or.cond = select i1 %cmp3.i, i1 %cmp5.i, i1 false
  br i1 %or.cond, label %land.rhs.i, label %_ZNK19OpenColorIO_v2_4dev10CTFVersioneqERKS0_.exit

land.rhs.i:                                       ; preds = %entry
  %m_revision.i2 = getelementptr inbounds i8, ptr %this, i64 348
  %2 = load i32, ptr %m_revision.i2, align 4
  %cmp7.i = icmp ne i32 %2, 0
  br label %_ZNK19OpenColorIO_v2_4dev10CTFVersioneqERKS0_.exit

_ZNK19OpenColorIO_v2_4dev10CTFVersioneqERKS0_.exit: ; preds = %entry, %land.rhs.i
  %retval.0.i = phi i1 [ true, %entry ], [ %cmp7.i, %land.rhs.i ]
  ret i1 %retval.0.i
}